; Function Attrs: nounwind uwtable
define i32 @stbtt_GetGlyphShape(ptr noundef readonly captures(none) %0, i32 noundef %1, ptr noundef writeonly captures(none) initializes((0, 8)) %2) local_unnamed_addr #11 {
  %4 = alloca %struct.stbtt__csctx, align 8
  %5 = alloca %struct.stbtt__csctx, align 8
  %6 = getelementptr inbounds nuw i8, ptr %0, i64 76
  %7 = load i32, ptr %6, align 4, !tbaa !39
  %.not = icmp eq i32 %7, 0
  br i1 %.not, label %8, label %10

8:                                                ; preds = %3
  %9 = tail call i32 @stbtt__GetGlyphShapeTT(ptr noundef nonnull %0, i32 noundef %1, ptr noundef %2)
  br label %24

10:                                               ; preds = %3
  call void @llvm.lifetime.start.p0(i64 56, ptr nonnull %4) #32
  call void @llvm.memset.p0.i64(ptr noundef nonnull align 8 dereferenceable(56) %4, i8 0, i64 56, i1 false)
  store i32 1, ptr %4, align 8
  call void @llvm.lifetime.start.p0(i64 56, ptr nonnull %5) #32
  call void @llvm.memset.p0.i64(ptr noundef nonnull align 8 dereferenceable(56) %5, i8 0, i64 56, i1 false)
  %11 = call i32 @stbtt__run_charstring(ptr noundef nonnull readonly %0, i32 noundef %1, ptr noundef nonnull %4)
  %.not.i = icmp eq i32 %11, 0
  br i1 %.not.i, label %23, label %12

12:                                               ; preds = %10
  %13 = getelementptr inbounds nuw i8, ptr %4, i64 48
  %14 = load i32, ptr %13, align 8, !tbaa !40
  %15 = sext i32 %14 to i64
  %16 = mul nsw i64 %15, 14
  %17 = call noalias ptr @malloc(i64 noundef %16) #33
  store ptr %17, ptr %2, align 8, !tbaa !43
  %18 = getelementptr inbounds nuw i8, ptr %5, i64 40
  store ptr %17, ptr %18, align 8, !tbaa !44
  %19 = call i32 @stbtt__run_charstring(ptr noundef nonnull readonly %0, i32 noundef %1, ptr noundef nonnull %5)
  %.not7.i = icmp eq i32 %19, 0
  br i1 %.not7.i, label %23, label %20

20:                                               ; preds = %12
  %21 = getelementptr inbounds nuw i8, ptr %5, i64 48
  %22 = load i32, ptr %21, align 8, !tbaa !40
  br label %stbtt__GetGlyphShapeT2.exit

23:                                               ; preds = %12, %10
  store ptr null, ptr %2, align 8, !tbaa !43
  br label %stbtt__GetGlyphShapeT2.exit

stbtt__GetGlyphShapeT2.exit:                      ; preds = %20, %23
  %.0.i = phi i32 [ %22, %20 ], [ 0, %23 ]
  call void @llvm.lifetime.end.p0(i64 56, ptr nonnull %5) #32
  call void @llvm.lifetime.end.p0(i64 56, ptr nonnull %4) #32
  br label %24

24:                                               ; preds = %stbtt__GetGlyphShapeT2.exit, %8
  %.0 = phi i32 [ %.0.i, %stbtt__GetGlyphShapeT2.exit ], [ %9, %8 ]
  ret i32 %.0
}